target datalayout = "e-m:e-p270:32:32-p271:32:32-p272:64:64-i64:64-i128:128-f80:128-n8:16:32:64-S128"
target triple = "x86_64-unknown-linux-gnu"

%"class.cvc5::internal::NodeTemplate.28" = type { ptr }
%"class.cvc5::internal::Rational" = type { %class.__gmp_expr }
%class.__gmp_expr = type { [1 x %struct.__mpq_struct] }
%struct.__mpq_struct = type { %struct.__mpz_struct, %struct.__mpz_struct }
%struct.__mpz_struct = type { i32, i32, ptr }
%"class.cvc5::internal::theory::arith::linear::ArithVariables::VarInfo" = type <{ i32, [4 x i8], %"class.cvc5::internal::DeltaRational", ptr, ptr, i32, i32, i32, i32, %"class.cvc5::internal::NodeTemplate.28", i8, [7 x i8] }>
%"class.cvc5::internal::DeltaRational" = type { %"class.cvc5::internal::Rational", %"class.cvc5::internal::Rational" }

@_ZN4cvc58internal6theory5arith6linear17ARITHVAR_SENTINELE = external constant i32, align 4
@_ZN4cvc58internal12NodeTemplateILb1EE6s_nullE = linkonce_odr hidden global %"class.cvc5::internal::NodeTemplate.28" zeroinitializer, comdat, align 8

; Function Attrs: mustprogress uwtable
define linkonce_odr hidden void @_ZN4cvc58internal4expr9NodeValue3incEv(ptr noundef nonnull align 8 dereferenceable(16) %this) #4 comdat align 2 {
entry:
  %this.addr = alloca ptr, align 8
  store ptr %this, ptr %this.addr, align 8
  %this1 = load ptr, ptr %this.addr, align 8
  %bf.load = load i64, ptr %this1, align 8
  %bf.lshr = lshr i64 %bf.load, 40
  %bf.clear = and i64 %bf.lshr, 1048575
  %bf.cast = trunc i64 %bf.clear to i32
  %cmp = icmp ult i32 %bf.cast, 1048574
  br i1 %cmp, label %if.then, label %if.else

if.then:                                          ; preds = %entry
  %bf.load2 = load i64, ptr %this1, align 8
  %bf.lshr3 = lshr i64 %bf.load2, 40
  %bf.clear4 = and i64 %bf.lshr3, 1048575
  %bf.cast5 = trunc i64 %bf.clear4 to i32
  %inc = add i32 %bf.cast5, 1
  %0 = zext i32 %inc to i64
  %bf.load6 = load i64, ptr %this1, align 8
  %bf.value = and i64 %0, 1048575
  %bf.shl = shl i64 %bf.value, 40
  %bf.clear7 = and i64 %bf.load6, -1152920405095219201
  %bf.set = or i64 %bf.clear7, %bf.shl
  store i64 %bf.set, ptr %this1, align 8
  br label %if.end25

if.else:                                          ; preds = %entry
  %bf.load8 = load i64, ptr %this1, align 8
  %bf.lshr9 = lshr i64 %bf.load8, 40
  %bf.clear10 = and i64 %bf.lshr9, 1048575
  %bf.cast11 = trunc i64 %bf.clear10 to i32
  %cmp12 = icmp eq i32 %bf.cast11, 1048574
  br i1 %cmp12, label %if.then13, label %if.end

if.then13:                                        ; preds = %if.else
  %bf.load14 = load i64, ptr %this1, align 8
  %bf.lshr15 = lshr i64 %bf.load14, 40
  %bf.clear16 = and i64 %bf.lshr15, 1048575
  %bf.cast17 = trunc i64 %bf.clear16 to i32
  %inc18 = add i32 %bf.cast17, 1
  %1 = zext i32 %inc18 to i64
  %bf.load19 = load i64, ptr %this1, align 8
  %bf.value20 = and i64 %1, 1048575
  %bf.shl21 = shl i64 %bf.value20, 40
  %bf.clear22 = and i64 %bf.load19, -1152920405095219201
  %bf.set23 = or i64 %bf.clear22, %bf.shl21
  store i64 %bf.set23, ptr %this1, align 8
  call void @_ZN4cvc58internal4expr9NodeValue20markRefCountMaxedOutEv(ptr noundef nonnull align 8 dereferenceable(16) %this1)
  br label %if.end

if.end:                                           ; preds = %if.then13, %if.else
  br label %if.end25

if.end25:                                         ; preds = %if.end, %if.then
  ret void
}

; Function Attrs: mustprogress uwtable
define linkonce_odr hidden void @_ZN4cvc58internal12NodeTemplateILb1EEC2ERKS2_(ptr noundef nonnull align 8 dereferenceable(8) %this, ptr noundef nonnull align 8 dereferenceable(8) %e) unnamed_addr #4 comdat align 2 {
entry:
  %this.addr = alloca ptr, align 8
  %e.addr = alloca ptr, align 8
  store ptr %this, ptr %this.addr, align 8
  store ptr %e, ptr %e.addr, align 8
  %this1 = load ptr, ptr %this.addr, align 8
  %0 = load ptr, ptr %e.addr, align 8
  %d_nv = getelementptr inbounds %"class.cvc5::internal::NodeTemplate.28", ptr %0, i32 0, i32 0
  %1 = load ptr, ptr %d_nv, align 8
  %d_nv2 = getelementptr inbounds %"class.cvc5::internal::NodeTemplate.28", ptr %this1, i32 0, i32 0
  store ptr %1, ptr %d_nv2, align 8
  %d_nv3 = getelementptr inbounds %"class.cvc5::internal::NodeTemplate.28", ptr %this1, i32 0, i32 0
  %2 = load ptr, ptr %d_nv3, align 8
  call void @_ZN4cvc58internal4expr9NodeValue3incEv(ptr noundef nonnull align 8 dereferenceable(16) %2)
  ret void
}

; Function Attrs: mustprogress nounwind uwtable
define linkonce_odr hidden void @_ZN10__gmp_exprIA1_12__mpq_structS1_ED2Ev(ptr noundef nonnull align 8 dereferenceable(32) %this) unnamed_addr #5 comdat align 2 personality ptr @__gxx_personality_v0 {
entry:
  %this.addr = alloca ptr, align 8
  store ptr %this, ptr %this.addr, align 8
  %this1 = load ptr, ptr %this.addr, align 8
  %mp = getelementptr inbounds %class.__gmp_expr, ptr %this1, i32 0, i32 0
  %arraydecay = getelementptr inbounds [1 x %struct.__mpq_struct], ptr %mp, i64 0, i64 0
  invoke void @__gmpq_clear(ptr noundef %arraydecay)
          to label %invoke.cont unwind label %terminate.lpad

invoke.cont:                                      ; preds = %entry
  ret void

terminate.lpad:                                   ; preds = %entry
  %0 = landingpad { ptr, i32 }
          catch ptr null
  %1 = extractvalue { ptr, i32 } %0, 0
  call void @__clang_call_terminate(ptr %1) #16
  unreachable
}

; Function Attrs: mustprogress uwtable
define linkonce_odr hidden void @_ZN4cvc58internal12NodeTemplateILb1EE4nullEv(ptr noalias sret(%"class.cvc5::internal::NodeTemplate.28") align 8 %agg.result) #4 comdat align 2 {
entry:
  %result.ptr = alloca ptr, align 8
  store ptr %agg.result, ptr %result.ptr, align 8
  call void @_ZN4cvc58internal12NodeTemplateILb1EEC2ERKS2_(ptr noundef nonnull align 8 dereferenceable(8) %agg.result, ptr noundef nonnull align 8 dereferenceable(8) @_ZN4cvc58internal12NodeTemplateILb1EE6s_nullE)
  ret void
}

; Function Attrs: mustprogress nounwind uwtable
define linkonce_odr hidden void @_ZN4cvc58internal8RationalD2Ev(ptr noundef nonnull align 8 dereferenceable(32) %this) unnamed_addr #5 comdat align 2 {
entry:
  %this.addr = alloca ptr, align 8
  store ptr %this, ptr %this.addr, align 8
  %this1 = load ptr, ptr %this.addr, align 8
  %d_value = getelementptr inbounds %"class.cvc5::internal::Rational", ptr %this1, i32 0, i32 0
  call void @_ZN10__gmp_exprIA1_12__mpq_structS1_ED2Ev(ptr noundef nonnull align 8 dereferenceable(32) %d_value) #3
  ret void
}

; Function Attrs: mustprogress uwtable
define hidden void @_ZN4cvc58internal6theory5arith6linear14ArithVariables7VarInfoC2Ev(ptr noundef nonnull align 8 dereferenceable(113) %this) unnamed_addr #4 align 2 personality ptr @__gxx_personality_v0 {
entry:
  %this.addr = alloca ptr, align 8
  %ref.tmp = alloca %"class.cvc5::internal::Rational", align 8
  %exn.slot = alloca ptr, align 8
  %ehselector.slot = alloca i32, align 4
  store ptr %this, ptr %this.addr, align 8
  %this1 = load ptr, ptr %this.addr, align 8
  %d_var = getelementptr inbounds %"class.cvc5::internal::theory::arith::linear::ArithVariables::VarInfo", ptr %this1, i32 0, i32 0
  %0 = load i32, ptr @_ZN4cvc58internal6theory5arith6linear17ARITHVAR_SENTINELE, align 4
  store i32 %0, ptr %d_var, align 8
  %d_assignment = getelementptr inbounds %"class.cvc5::internal::theory::arith::linear::ArithVariables::VarInfo", ptr %this1, i32 0, i32 2
  call void @_ZN4cvc58internal8RationalC2Ei(ptr noundef nonnull align 8 dereferenceable(32) %ref.tmp, i32 noundef 0)
  invoke void @_ZN4cvc58internal13DeltaRationalC2ERKNS0_8RationalE(ptr noundef nonnull align 8 dereferenceable(64) %d_assignment, ptr noundef nonnull align 8 dereferenceable(32) %ref.tmp)
          to label %invoke.cont unwind label %lpad

invoke.cont:                                      ; preds = %entry
  call void @_ZN4cvc58internal8RationalD2Ev(ptr noundef nonnull align 8 dereferenceable(32) %ref.tmp) #3
  %d_lb = getelementptr inbounds %"class.cvc5::internal::theory::arith::linear::ArithVariables::VarInfo", ptr %this1, i32 0, i32 3
  store ptr null, ptr %d_lb, align 8
  %d_ub = getelementptr inbounds %"class.cvc5::internal::theory::arith::linear::ArithVariables::VarInfo", ptr %this1, i32 0, i32 4
  store ptr null, ptr %d_ub, align 8
  %d_cmpAssignmentLB = getelementptr inbounds %"class.cvc5::internal::theory::arith::linear::ArithVariables::VarInfo", ptr %this1, i32 0, i32 5
  store i32 1, ptr %d_cmpAssignmentLB, align 8
  %d_cmpAssignmentUB = getelementptr inbounds %"class.cvc5::internal::theory::arith::linear::ArithVariables::VarInfo", ptr %this1, i32 0, i32 6
  store i32 -1, ptr %d_cmpAssignmentUB, align 4
  %d_pushCount = getelementptr inbounds %"class.cvc5::internal::theory::arith::linear::ArithVariables::VarInfo", ptr %this1, i32 0, i32 7
  store i32 0, ptr %d_pushCount, align 8
  %d_type = getelementptr inbounds %"class.cvc5::internal::theory::arith::linear::ArithVariables::VarInfo", ptr %this1, i32 0, i32 8
  store i32 0, ptr %d_type, align 4
  %d_node = getelementptr inbounds %"class.cvc5::internal::theory::arith::linear::ArithVariables::VarInfo", ptr %this1, i32 0, i32 9
  invoke void @_ZN4cvc58internal12NodeTemplateILb1EE4nullEv(ptr sret(%"class.cvc5::internal::NodeTemplate.28") align 8 %d_node)
          to label %invoke.cont3 unwind label %lpad2

invoke.cont3:                                     ; preds = %invoke.cont
  %d_auxiliary = getelementptr inbounds %"class.cvc5::internal::theory::arith::linear::ArithVariables::VarInfo", ptr %this1, i32 0, i32 10
  store i8 0, ptr %d_auxiliary, align 8
  ret void

lpad:                                             ; preds = %entry
  %1 = landingpad { ptr, i32 }
          cleanup
  %2 = extractvalue { ptr, i32 } %1, 0
  store ptr %2, ptr %exn.slot, align 8
  %3 = extractvalue { ptr, i32 } %1, 1
  store i32 %3, ptr %ehselector.slot, align 4
  call void @_ZN4cvc58internal8RationalD2Ev(ptr noundef nonnull align 8 dereferenceable(32) %ref.tmp) #3
  br label %eh.resume

lpad2:                                            ; preds = %invoke.cont
  %4 = landingpad { ptr, i32 }
          cleanup
  %5 = extractvalue { ptr, i32 } %4, 0
  store ptr %5, ptr %exn.slot, align 8
  %6 = extractvalue { ptr, i32 } %4, 1
  store i32 %6, ptr %ehselector.slot, align 4
  call void @_ZN4cvc58internal13DeltaRationalD2Ev(ptr noundef nonnull align 8 dereferenceable(64) %d_assignment) #3
  br label %eh.resume

eh.resume:                                        ; preds = %lpad2, %lpad
  %exn = load ptr, ptr %exn.slot, align 8
  %sel = load i32, ptr %ehselector.slot, align 4
  %lpad.val = insertvalue { ptr, i32 } poison, ptr %exn, 0
  %lpad.val4 = insertvalue { ptr, i32 } %lpad.val, i32 %sel, 1
  resume { ptr, i32 } %lpad.val4
}