; Function Attrs: mustprogress uwtable
define hidden void @_ZN4cvc58internal6theory5arith6linear14ArithVariables7VarInfoC2Ev(ptr noundef nonnull align 8 dereferenceable(113) %this) unnamed_addr #3 align 2 personality ptr @__gxx_personality_v0 {
entry:
  %ref.tmp = alloca %"class.cvc5::internal::Rational", align 8
  %0 = load i32, ptr @_ZN4cvc58internal6theory5arith6linear17ARITHVAR_SENTINELE, align 4
  store i32 %0, ptr %this, align 8
  %d_assignment = getelementptr inbounds i8, ptr %this, i64 8
  call void @_ZN4cvc58internal8RationalC2Ei(ptr noundef nonnull align 8 dereferenceable(32) %ref.tmp, i32 noundef 0)
  invoke void @_ZN4cvc58internal13DeltaRationalC2ERKNS0_8RationalE(ptr noundef nonnull align 8 dereferenceable(64) %d_assignment, ptr noundef nonnull align 8 dereferenceable(32) %ref.tmp)
          to label %invoke.cont unwind label %lpad

invoke.cont:                                      ; preds = %entry
  invoke void @__gmpq_clear(ptr noundef nonnull %ref.tmp)
          to label %_ZN4cvc58internal8RationalD2Ev.exit unwind label %terminate.lpad.i.i

terminate.lpad.i.i:                               ; preds = %invoke.cont
  %1 = landingpad { ptr, i32 }
          catch ptr null
  %2 = extractvalue { ptr, i32 } %1, 0
  call void @__clang_call_terminate(ptr %2) #27
  unreachable

_ZN4cvc58internal8RationalD2Ev.exit:              ; preds = %invoke.cont
  %d_lb = getelementptr inbounds i8, ptr %this, i64 72
  %d_cmpAssignmentLB = getelementptr inbounds i8, ptr %this, i64 88
  call void @llvm.memset.p0.i64(ptr noundef nonnull align 8 dereferenceable(16) %d_lb, i8 0, i64 16, i1 false)
  store <4 x i32> <i32 1, i32 -1, i32 0, i32 0>, ptr %d_cmpAssignmentLB, align 8
  %d_node = getelementptr inbounds i8, ptr %this, i64 104
  call void @llvm.experimental.noalias.scope.decl(metadata !14)
  %3 = load ptr, ptr @_ZN4cvc58internal12NodeTemplateILb1EE6s_nullE, align 8, !noalias !14
  store ptr %3, ptr %d_node, align 8, !alias.scope !14
  %bf.load.i.i.i = load i64, ptr %3, align 8, !noalias !14
  %bf.lshr.i.i.i = lshr i64 %bf.load.i.i.i, 40
  %4 = trunc i64 %bf.lshr.i.i.i to i32
  %bf.cast.i.i.i = and i32 %4, 1048575
  %cmp.i.i.i = icmp ult i32 %bf.cast.i.i.i, 1048574
  br i1 %cmp.i.i.i, label %if.then.i.i.i, label %if.else.i.i.i

if.then.i.i.i:                                    ; preds = %_ZN4cvc58internal8RationalD2Ev.exit
  %bf.value.i.i.i = add i64 %bf.load.i.i.i, 1099511627776
  %bf.shl.i.i.i = and i64 %bf.value.i.i.i, 1152920405095219200
  %bf.clear7.i.i.i = and i64 %bf.load.i.i.i, -1152920405095219201
  %bf.set.i.i.i = or disjoint i64 %bf.shl.i.i.i, %bf.clear7.i.i.i
  store i64 %bf.set.i.i.i, ptr %3, align 8, !noalias !14
  br label %invoke.cont3

if.else.i.i.i:                                    ; preds = %_ZN4cvc58internal8RationalD2Ev.exit
  %cmp12.i.i.i = icmp eq i32 %bf.cast.i.i.i, 1048574
  br i1 %cmp12.i.i.i, label %if.then13.i.i.i, label %invoke.cont3

if.then13.i.i.i:                                  ; preds = %if.else.i.i.i
  %bf.set23.i.i.i = or i64 %bf.load.i.i.i, 1152920405095219200
  store i64 %bf.set23.i.i.i, ptr %3, align 8, !noalias !14
  invoke void @_ZN4cvc58internal4expr9NodeValue20markRefCountMaxedOutEv(ptr noundef nonnull align 8 dereferenceable(16) %3)
          to label %invoke.cont3 unwind label %lpad2

invoke.cont3:                                     ; preds = %if.else.i.i.i, %if.then.i.i.i, %if.then13.i.i.i
  %d_auxiliary = getelementptr inbounds i8, ptr %this, i64 112
  store i8 0, ptr %d_auxiliary, align 8
  ret void

lpad:                                             ; preds = %entry
  %5 = landingpad { ptr, i32 }
          cleanup
  invoke void @__gmpq_clear(ptr noundef nonnull %ref.tmp)
          to label %eh.resume unwind label %terminate.lpad.i.i2

terminate.lpad.i.i2:                              ; preds = %lpad
  %6 = landingpad { ptr, i32 }
          catch ptr null
  %7 = extractvalue { ptr, i32 } %6, 0
  call void @__clang_call_terminate(ptr %7) #27
  unreachable

lpad2:                                            ; preds = %if.then13.i.i.i
  %8 = landingpad { ptr, i32 }
          cleanup
  call void @_ZN4cvc58internal13DeltaRationalD2Ev(ptr noundef nonnull align 8 dereferenceable(64) %d_assignment) #25
  br label %eh.resume

eh.resume:                                        ; preds = %lpad, %lpad2
  %.pn = phi { ptr, i32 } [ %8, %lpad2 ], [ %5, %lpad ]
  resume { ptr, i32 } %.pn
}